; Function Attrs: nounwind uwtable
define hidden noundef zeroext i1 @je_edata_cache_init(ptr noundef %0, ptr noundef %1) local_unnamed_addr #0 {
  tail call void @je_edata_avail_new(ptr noundef %0) #4
  %3 = getelementptr inbounds nuw i8, ptr %0, i64 16
  store atomic i64 0, ptr %3 monotonic, align 8
  %4 = getelementptr inbounds nuw i8, ptr %0, i64 24
  %5 = tail call zeroext i1 @je_malloc_mutex_init(ptr noundef nonnull %4, ptr noundef nonnull @.str, i32 noundef 21, i32 noundef 0) #4
  br i1 %5, label %8, label %6

6:                                                ; preds = %2
  %7 = getelementptr inbounds nuw i8, ptr %0, i64 136
  store ptr %1, ptr %7, align 8, !tbaa !4
  br label %8

8:                                                ; preds = %2, %6
  ret i1 %5
}